target datalayout = "e-m:e-p270:32:32-p271:32:32-p272:64:64-i64:64-i128:128-f80:128-n8:16:32:64-S128"
target triple = "x86_64-pc-linux-gnu"

@PqRecvLength = internal global i32 0, align 4
@PqRecvPointer = internal global i32 0, align 4

; Function Attrs: nounwind uwtable
define internal i32 @pq_discardbytes(i64 noundef %0) #0 {
  %2 = alloca i32, align 4
  %3 = alloca i64, align 8
  %4 = alloca i64, align 8
  %5 = alloca i32, align 4
  store i64 %0, ptr %3, align 8
  call void @llvm.lifetime.start.p0(i64 8, ptr %4) #14
  br label %6

6:                                                ; preds = %29, %1
  %7 = load i64, ptr %3, align 8
  %8 = icmp ugt i64 %7, 0
  br i1 %8, label %9, label %38

9:                                                ; preds = %6
  br label %10

10:                                               ; preds = %18, %9
  %11 = load i32, ptr @PqRecvPointer, align 4
  %12 = load i32, ptr @PqRecvLength, align 4
  %13 = icmp sge i32 %11, %12
  br i1 %13, label %14, label %19

14:                                               ; preds = %10
  %15 = call i32 @pq_recvbuf()
  %16 = icmp ne i32 %15, 0
  br i1 %16, label %17, label %18

17:                                               ; preds = %14
  store i32 -1, ptr %2, align 4
  store i32 1, ptr %5, align 4
  br label %39

18:                                               ; preds = %14
  br label %10, !llvm.loop !15

19:                                               ; preds = %10
  %20 = load i32, ptr @PqRecvLength, align 4
  %21 = load i32, ptr @PqRecvPointer, align 4
  %22 = sub i32 %20, %21
  %23 = sext i32 %22 to i64
  store i64 %23, ptr %4, align 8
  %24 = load i64, ptr %4, align 8
  %25 = load i64, ptr %3, align 8
  %26 = icmp ugt i64 %24, %25
  br i1 %26, label %27, label %29

27:                                               ; preds = %19
  %28 = load i64, ptr %3, align 8
  store i64 %28, ptr %4, align 8
  br label %29

29:                                               ; preds = %27, %19
  %30 = load i64, ptr %4, align 8
  %31 = load i32, ptr @PqRecvPointer, align 4
  %32 = sext i32 %31 to i64
  %33 = add i64 %32, %30
  %34 = trunc i64 %33 to i32
  store i32 %34, ptr @PqRecvPointer, align 4
  %35 = load i64, ptr %4, align 8
  %36 = load i64, ptr %3, align 8
  %37 = sub i64 %36, %35
  store i64 %37, ptr %3, align 8
  br label %6, !llvm.loop !16

38:                                               ; preds = %6
  store i32 0, ptr %2, align 4
  store i32 1, ptr %5, align 4
  br label %39

39:                                               ; preds = %38, %17
  call void @llvm.lifetime.end.p0(i64 8, ptr %4) #14
  %40 = load i32, ptr %2, align 4
  ret i32 %40
}