; Function Attrs: nounwind uwtable
define internal fastcc range(i32 -1, 1) i32 @pq_discardbytes(i64 noundef range(i64 -2147483648, 2147483648) %0) unnamed_addr #0 {
  %.not19 = icmp eq i64 %0, 0
  br i1 %.not19, label %.loopexit, label %.preheader

.preheader:                                       ; preds = %1, %7
  %.0820 = phi i64 [ %12, %7 ], [ %0, %1 ]
  br label %2

2:                                                ; preds = %.preheader, %5
  %3 = load i32, ptr @PqRecvPointer, align 4
  %4 = load i32, ptr @PqRecvLength, align 4
  %.not13 = icmp slt i32 %3, %4
  br i1 %.not13, label %7, label %5

5:                                                ; preds = %2
  %6 = tail call fastcc i32 @pq_recvbuf()
  %.not14 = icmp eq i32 %6, 0
  br i1 %.not14, label %2, label %.loopexit, !llvm.loop !10

7:                                                ; preds = %2
  %8 = sub i32 %4, %3
  %9 = sext i32 %8 to i64
  %spec.select = tail call i64 @llvm.umin.i64(i64 %.0820, i64 %9)
  %10 = trunc i64 %spec.select to i32
  %11 = add i32 %3, %10
  store i32 %11, ptr @PqRecvPointer, align 4
  %12 = sub i64 %.0820, %spec.select
  %.not = icmp eq i64 %12, 0
  br i1 %.not, label %.loopexit, label %.preheader, !llvm.loop !11

.loopexit:                                        ; preds = %7, %5, %1
  %.09 = phi i32 [ 0, %1 ], [ -1, %5 ], [ 0, %7 ]
  ret i32 %.09
}